target datalayout = "e-m:e-p270:32:32-p271:32:32-p272:64:64-i64:64-i128:128-f80:128-n8:16:32:64-S128"
target triple = "x86_64-pc-linux-gnu"

%struct._diam_sub_dis_t = type { i32, i32, i32, i32, i32, ptr, ptr, i32, i32, i32 }
%struct._packet_info = type { ptr, ptr, i32, i32, %struct.nstime_t, %struct.nstime_t, %struct.nstime_t, i32, ptr, ptr, ptr, ptr, %struct._address, %struct._address, %struct._address, %struct._address, %struct._address, %struct._address, i32, ptr, i32, %struct.anon, i32, i32, i32, i32, ptr, i32, ptr, ptr, i16, i16, i32, i32, i16, i32, i32, ptr, ptr, ptr, i8, i8, i16, i16, i16, i32, i16, i16, ptr, ptr, ptr, ptr, ptr, i32 }
%struct.nstime_t = type { i64, i32 }
%struct._address = type { i32, i32, ptr, ptr }
%struct.anon = type { i8, [3 x i8] }

@gsm_sms_handle = internal global ptr null, align 8

; Function Attrs: nounwind uwtable
define internal i32 @dissect_diameter_3gpp_sm_rp_ui(ptr noundef %0, ptr noundef %1, ptr noundef %2, ptr noundef %3) #0 {
  %5 = alloca ptr, align 8
  %6 = alloca ptr, align 8
  %7 = alloca ptr, align 8
  %8 = alloca ptr, align 8
  %9 = alloca i32, align 4
  %10 = alloca ptr, align 8
  %11 = alloca i32, align 4
  %12 = alloca i32, align 4
  %13 = alloca i32, align 4
  store ptr %0, ptr %5, align 8
  store ptr %1, ptr %6, align 8
  store ptr %2, ptr %7, align 8
  store ptr %3, ptr %8, align 8
  %14 = load ptr, ptr %5, align 8
  %15 = call i32 @tvb_reported_length(ptr noundef %14)
  store i32 %15, ptr %9, align 4
  %16 = load ptr, ptr %8, align 8
  store ptr %16, ptr %10, align 8
  store i32 0, ptr %11, align 4
  %17 = load ptr, ptr %6, align 8
  %18 = getelementptr inbounds %struct._packet_info, ptr %17, i32 0, i32 1
  %19 = load ptr, ptr %18, align 8
  %20 = call i32 @col_get_writable(ptr noundef %19, i32 noundef -1)
  store i32 %20, ptr %12, align 4
  store i32 1, ptr %13, align 4
  %21 = load ptr, ptr %10, align 8
  %22 = icmp ne ptr %21, null
  br i1 %22, label %23, label %30

23:                                               ; preds = %4
  %24 = load ptr, ptr %10, align 8
  %25 = getelementptr inbounds %struct._diam_sub_dis_t, ptr %24, i32 0, i32 1
  %26 = load i32, ptr %25, align 4
  store i32 %26, ptr %11, align 4
  %27 = load ptr, ptr %10, align 8
  %28 = getelementptr inbounds %struct._diam_sub_dis_t, ptr %27, i32 0, i32 9
  %29 = load i32, ptr %28, align 8
  store i32 %29, ptr %13, align 4
  br label %30

30:                                               ; preds = %23, %4
  %31 = load ptr, ptr %6, align 8
  %32 = getelementptr inbounds %struct._packet_info, ptr %31, i32 0, i32 1
  %33 = load ptr, ptr %32, align 8
  call void @col_set_writable(ptr noundef %33, i32 noundef -1, i32 noundef 0)
  %34 = load i32, ptr %9, align 4
  %35 = icmp sgt i32 %34, 0
  br i1 %35, label %36, label %73

36:                                               ; preds = %30
  %37 = load i32, ptr %11, align 4
  %38 = icmp ne i32 %37, 0
  br i1 %38, label %39, label %73

39:                                               ; preds = %36
  %40 = load i32, ptr %11, align 4
  switch i32 %40, label %71 [
    i32 8388645, label %41
    i32 8388646, label %56
  ]

41:                                               ; preds = %39
  %42 = load i32, ptr %13, align 4
  %43 = icmp ne i32 %42, 0
  br i1 %43, label %44, label %47

44:                                               ; preds = %41
  %45 = load ptr, ptr %6, align 8
  %46 = getelementptr inbounds %struct._packet_info, ptr %45, i32 0, i32 36
  store i32 1, ptr %46, align 4
  br label %50

47:                                               ; preds = %41
  %48 = load ptr, ptr %6, align 8
  %49 = getelementptr inbounds %struct._packet_info, ptr %48, i32 0, i32 36
  store i32 0, ptr %49, align 4
  br label %50

50:                                               ; preds = %47, %44
  %51 = load ptr, ptr @gsm_sms_handle, align 8
  %52 = load ptr, ptr %5, align 8
  %53 = load ptr, ptr %6, align 8
  %54 = load ptr, ptr %7, align 8
  %55 = call i32 @call_dissector(ptr noundef %51, ptr noundef %52, ptr noundef %53, ptr noundef %54)
  br label %72

56:                                               ; preds = %39
  %57 = load i32, ptr %13, align 4
  %58 = icmp ne i32 %57, 0
  br i1 %58, label %59, label %62

59:                                               ; preds = %56
  %60 = load ptr, ptr %6, align 8
  %61 = getelementptr inbounds %struct._packet_info, ptr %60, i32 0, i32 36
  store i32 0, ptr %61, align 4
  br label %65

62:                                               ; preds = %56
  %63 = load ptr, ptr %6, align 8
  %64 = getelementptr inbounds %struct._packet_info, ptr %63, i32 0, i32 36
  store i32 1, ptr %64, align 4
  br label %65

65:                                               ; preds = %62, %59
  %66 = load ptr, ptr @gsm_sms_handle, align 8
  %67 = load ptr, ptr %5, align 8
  %68 = load ptr, ptr %6, align 8
  %69 = load ptr, ptr %7, align 8
  %70 = call i32 @call_dissector(ptr noundef %66, ptr noundef %67, ptr noundef %68, ptr noundef %69)
  br label %72

71:                                               ; preds = %39
  br label %72

72:                                               ; preds = %71, %65, %50
  br label %73

73:                                               ; preds = %72, %36, %30
  %74 = load ptr, ptr %6, align 8
  %75 = getelementptr inbounds %struct._packet_info, ptr %74, i32 0, i32 1
  %76 = load ptr, ptr %75, align 8
  %77 = load i32, ptr %12, align 4
  call void @col_set_writable(ptr noundef %76, i32 noundef -1, i32 noundef %77)
  %78 = load i32, ptr %9, align 4
  ret i32 %78
}