; Function Attrs: nounwind uwtable
define internal i32 @dissect_diameter_3gpp_sm_rp_ui(ptr noundef %0, ptr noundef %1, ptr noundef %2, ptr noundef readonly %3) #0 {
  %5 = tail call i32 @tvb_reported_length(ptr noundef %0) #3
  %6 = getelementptr inbounds nuw i8, ptr %1, i64 8
  %7 = load ptr, ptr %6, align 8
  %8 = tail call i32 @col_get_writable(ptr noundef %7, i32 noundef -1) #3
  %.not = icmp eq ptr %3, null
  br i1 %.not, label %15, label %9

9:                                                ; preds = %4
  %10 = getelementptr inbounds nuw i8, ptr %3, i64 4
  %11 = load i32, ptr %10, align 4
  %12 = getelementptr inbounds nuw i8, ptr %3, i64 48
  %13 = load i32, ptr %12, align 8
  %14 = icmp eq i32 %13, 0
  br label %15

15:                                               ; preds = %9, %4
  %.025 = phi i32 [ %11, %9 ], [ 0, %4 ]
  %.0 = phi i1 [ %14, %9 ], [ false, %4 ]
  %16 = load ptr, ptr %6, align 8
  tail call void @col_set_writable(ptr noundef %16, i32 noundef -1, i32 noundef 0) #3
  %17 = icmp sgt i32 %5, 0
  %18 = icmp ne i32 %.025, 0
  %or.cond = select i1 %17, i1 %18, i1 false
  br i1 %or.cond, label %19, label %24

19:                                               ; preds = %15
  switch i32 %.025, label %24 [
    i32 8388645, label %20
    i32 8388646, label %.sink.split
  ]

20:                                               ; preds = %19
  %not..0 = xor i1 %.0, true
  br label %.sink.split

.sink.split:                                      ; preds = %19, %20
  %spec.select.sink.in = phi i1 [ %not..0, %20 ], [ %.0, %19 ]
  %spec.select.sink = zext i1 %spec.select.sink.in to i32
  %21 = getelementptr inbounds nuw i8, ptr %1, i64 348
  store i32 %spec.select.sink, ptr %21, align 4
  %22 = load ptr, ptr @gsm_sms_handle, align 8
  %23 = tail call i32 @call_dissector(ptr noundef %22, ptr noundef %0, ptr noundef nonnull %1, ptr noundef %2) #3
  br label %24

24:                                               ; preds = %.sink.split, %19, %15
  %25 = load ptr, ptr %6, align 8
  tail call void @col_set_writable(ptr noundef %25, i32 noundef -1, i32 noundef %8) #3
  ret i32 %5
}